ARM GAS  /tmp/cc0sjefa.s 			page 1


   1              		.cpu cortex-m4
   2              		.eabi_attribute 27, 1
   3              		.eabi_attribute 28, 1
   4              		.eabi_attribute 20, 1
   5              		.eabi_attribute 21, 1
   6              		.eabi_attribute 23, 3
   7              		.eabi_attribute 24, 1
   8              		.eabi_attribute 25, 1
   9              		.eabi_attribute 26, 1
  10              		.eabi_attribute 30, 1
  11              		.eabi_attribute 34, 1
  12              		.eabi_attribute 18, 4
  13              		.file	"stm32f4xx_hal_msp.c"
  14              		.text
  15              	.Ltext0:
  16              		.cfi_sections	.debug_frame
  17              		.section	.text.HAL_MspInit,"ax",%progbits
  18              		.align	1
  19              		.global	HAL_MspInit
  20              		.arch armv7e-m
  21              		.syntax unified
  22              		.thumb
  23              		.thumb_func
  24              		.fpu fpv4-sp-d16
  26              	HAL_MspInit:
  27              	.LFB134:
  28              		.file 1 "Core/Src/stm32f4xx_hal_msp.c"
   1:Core/Src/stm32f4xx_hal_msp.c **** /* USER CODE BEGIN Header */
   2:Core/Src/stm32f4xx_hal_msp.c **** /**
   3:Core/Src/stm32f4xx_hal_msp.c ****   ******************************************************************************
   4:Core/Src/stm32f4xx_hal_msp.c ****   * @file         stm32f4xx_hal_msp.c
   5:Core/Src/stm32f4xx_hal_msp.c ****   * @brief        This file provides code for the MSP Initialization
   6:Core/Src/stm32f4xx_hal_msp.c ****   *               and de-Initialization codes.
   7:Core/Src/stm32f4xx_hal_msp.c ****   ******************************************************************************
   8:Core/Src/stm32f4xx_hal_msp.c ****   * @attention
   9:Core/Src/stm32f4xx_hal_msp.c ****   *
  10:Core/Src/stm32f4xx_hal_msp.c ****   * Copyright (c) 2024 STMicroelectronics.
  11:Core/Src/stm32f4xx_hal_msp.c ****   * All rights reserved.
  12:Core/Src/stm32f4xx_hal_msp.c ****   *
  13:Core/Src/stm32f4xx_hal_msp.c ****   * This software is licensed under terms that can be found in the LICENSE file
  14:Core/Src/stm32f4xx_hal_msp.c ****   * in the root directory of this software component.
  15:Core/Src/stm32f4xx_hal_msp.c ****   * If no LICENSE file comes with this software, it is provided AS-IS.
  16:Core/Src/stm32f4xx_hal_msp.c ****   *
  17:Core/Src/stm32f4xx_hal_msp.c ****   ******************************************************************************
  18:Core/Src/stm32f4xx_hal_msp.c ****   */
  19:Core/Src/stm32f4xx_hal_msp.c **** /* USER CODE END Header */
  20:Core/Src/stm32f4xx_hal_msp.c **** 
  21:Core/Src/stm32f4xx_hal_msp.c **** /* Includes ------------------------------------------------------------------*/
  22:Core/Src/stm32f4xx_hal_msp.c **** #include "main.h"
  23:Core/Src/stm32f4xx_hal_msp.c **** /* USER CODE BEGIN Includes */
  24:Core/Src/stm32f4xx_hal_msp.c **** 
  25:Core/Src/stm32f4xx_hal_msp.c **** /* USER CODE END Includes */
  26:Core/Src/stm32f4xx_hal_msp.c **** extern DMA_HandleTypeDef hdma_usart2_rx;
  27:Core/Src/stm32f4xx_hal_msp.c **** 
  28:Core/Src/stm32f4xx_hal_msp.c **** extern DMA_HandleTypeDef hdma_usart2_tx;
  29:Core/Src/stm32f4xx_hal_msp.c **** 
  30:Core/Src/stm32f4xx_hal_msp.c **** /* Private typedef -----------------------------------------------------------*/
ARM GAS  /tmp/cc0sjefa.s 			page 2


  31:Core/Src/stm32f4xx_hal_msp.c **** /* USER CODE BEGIN TD */
  32:Core/Src/stm32f4xx_hal_msp.c **** 
  33:Core/Src/stm32f4xx_hal_msp.c **** /* USER CODE END TD */
  34:Core/Src/stm32f4xx_hal_msp.c **** 
  35:Core/Src/stm32f4xx_hal_msp.c **** /* Private define ------------------------------------------------------------*/
  36:Core/Src/stm32f4xx_hal_msp.c **** /* USER CODE BEGIN Define */
  37:Core/Src/stm32f4xx_hal_msp.c **** 
  38:Core/Src/stm32f4xx_hal_msp.c **** /* USER CODE END Define */
  39:Core/Src/stm32f4xx_hal_msp.c **** 
  40:Core/Src/stm32f4xx_hal_msp.c **** /* Private macro -------------------------------------------------------------*/
  41:Core/Src/stm32f4xx_hal_msp.c **** /* USER CODE BEGIN Macro */
  42:Core/Src/stm32f4xx_hal_msp.c **** 
  43:Core/Src/stm32f4xx_hal_msp.c **** /* USER CODE END Macro */
  44:Core/Src/stm32f4xx_hal_msp.c **** 
  45:Core/Src/stm32f4xx_hal_msp.c **** /* Private variables ---------------------------------------------------------*/
  46:Core/Src/stm32f4xx_hal_msp.c **** /* USER CODE BEGIN PV */
  47:Core/Src/stm32f4xx_hal_msp.c **** 
  48:Core/Src/stm32f4xx_hal_msp.c **** /* USER CODE END PV */
  49:Core/Src/stm32f4xx_hal_msp.c **** 
  50:Core/Src/stm32f4xx_hal_msp.c **** /* Private function prototypes -----------------------------------------------*/
  51:Core/Src/stm32f4xx_hal_msp.c **** /* USER CODE BEGIN PFP */
  52:Core/Src/stm32f4xx_hal_msp.c **** 
  53:Core/Src/stm32f4xx_hal_msp.c **** /* USER CODE END PFP */
  54:Core/Src/stm32f4xx_hal_msp.c **** 
  55:Core/Src/stm32f4xx_hal_msp.c **** /* External functions --------------------------------------------------------*/
  56:Core/Src/stm32f4xx_hal_msp.c **** /* USER CODE BEGIN ExternalFunctions */
  57:Core/Src/stm32f4xx_hal_msp.c **** 
  58:Core/Src/stm32f4xx_hal_msp.c **** /* USER CODE END ExternalFunctions */
  59:Core/Src/stm32f4xx_hal_msp.c **** 
  60:Core/Src/stm32f4xx_hal_msp.c **** /* USER CODE BEGIN 0 */
  61:Core/Src/stm32f4xx_hal_msp.c **** 
  62:Core/Src/stm32f4xx_hal_msp.c **** /* USER CODE END 0 */
  63:Core/Src/stm32f4xx_hal_msp.c **** 
  64:Core/Src/stm32f4xx_hal_msp.c **** void HAL_TIM_MspPostInit(TIM_HandleTypeDef *htim);
  65:Core/Src/stm32f4xx_hal_msp.c ****                     /**
  66:Core/Src/stm32f4xx_hal_msp.c ****   * Initializes the Global MSP.
  67:Core/Src/stm32f4xx_hal_msp.c ****   */
  68:Core/Src/stm32f4xx_hal_msp.c **** void HAL_MspInit(void)
  69:Core/Src/stm32f4xx_hal_msp.c **** {
  29              		.loc 1 69 1 view -0
  30              		.cfi_startproc
  31              		@ args = 0, pretend = 0, frame = 8
  32              		@ frame_needed = 0, uses_anonymous_args = 0
  33 0000 00B5     		push	{lr}
  34              	.LCFI0:
  35              		.cfi_def_cfa_offset 4
  36              		.cfi_offset 14, -4
  37 0002 83B0     		sub	sp, sp, #12
  38              	.LCFI1:
  39              		.cfi_def_cfa_offset 16
  70:Core/Src/stm32f4xx_hal_msp.c **** 
  71:Core/Src/stm32f4xx_hal_msp.c ****   /* USER CODE BEGIN MspInit 0 */
  72:Core/Src/stm32f4xx_hal_msp.c **** 
  73:Core/Src/stm32f4xx_hal_msp.c ****   /* USER CODE END MspInit 0 */
  74:Core/Src/stm32f4xx_hal_msp.c **** 
  75:Core/Src/stm32f4xx_hal_msp.c ****   __HAL_RCC_SYSCFG_CLK_ENABLE();
  40              		.loc 1 75 3 view .LVU1
ARM GAS  /tmp/cc0sjefa.s 			page 3


  41              	.LBB2:
  42              		.loc 1 75 3 view .LVU2
  43 0004 0022     		movs	r2, #0
  44 0006 0092     		str	r2, [sp]
  45              		.loc 1 75 3 view .LVU3
  46 0008 0D4B     		ldr	r3, .L3
  47 000a 596C     		ldr	r1, [r3, #68]
  48 000c 41F48041 		orr	r1, r1, #16384
  49 0010 5964     		str	r1, [r3, #68]
  50              		.loc 1 75 3 view .LVU4
  51 0012 596C     		ldr	r1, [r3, #68]
  52 0014 01F48041 		and	r1, r1, #16384
  53 0018 0091     		str	r1, [sp]
  54              		.loc 1 75 3 view .LVU5
  55 001a 0099     		ldr	r1, [sp]
  56              	.LBE2:
  57              		.loc 1 75 3 view .LVU6
  76:Core/Src/stm32f4xx_hal_msp.c ****   __HAL_RCC_PWR_CLK_ENABLE();
  58              		.loc 1 76 3 view .LVU7
  59              	.LBB3:
  60              		.loc 1 76 3 view .LVU8
  61 001c 0192     		str	r2, [sp, #4]
  62              		.loc 1 76 3 view .LVU9
  63 001e 196C     		ldr	r1, [r3, #64]
  64 0020 41F08051 		orr	r1, r1, #268435456
  65 0024 1964     		str	r1, [r3, #64]
  66              		.loc 1 76 3 view .LVU10
  67 0026 1B6C     		ldr	r3, [r3, #64]
  68 0028 03F08053 		and	r3, r3, #268435456
  69 002c 0193     		str	r3, [sp, #4]
  70              		.loc 1 76 3 view .LVU11
  71 002e 019B     		ldr	r3, [sp, #4]
  72              	.LBE3:
  73              		.loc 1 76 3 view .LVU12
  77:Core/Src/stm32f4xx_hal_msp.c **** 
  78:Core/Src/stm32f4xx_hal_msp.c ****   /* System interrupt init*/
  79:Core/Src/stm32f4xx_hal_msp.c ****   /* PendSV_IRQn interrupt configuration */
  80:Core/Src/stm32f4xx_hal_msp.c ****   HAL_NVIC_SetPriority(PendSV_IRQn, 15, 0);
  74              		.loc 1 80 3 view .LVU13
  75 0030 0F21     		movs	r1, #15
  76 0032 6FF00100 		mvn	r0, #1
  77 0036 FFF7FEFF 		bl	HAL_NVIC_SetPriority
  78              	.LVL0:
  81:Core/Src/stm32f4xx_hal_msp.c **** 
  82:Core/Src/stm32f4xx_hal_msp.c ****   /* USER CODE BEGIN MspInit 1 */
  83:Core/Src/stm32f4xx_hal_msp.c **** 
  84:Core/Src/stm32f4xx_hal_msp.c ****   /* USER CODE END MspInit 1 */
  85:Core/Src/stm32f4xx_hal_msp.c **** }
  79              		.loc 1 85 1 is_stmt 0 view .LVU14
  80 003a 03B0     		add	sp, sp, #12
  81              	.LCFI2:
  82              		.cfi_def_cfa_offset 4
  83              		@ sp needed
  84 003c 5DF804FB 		ldr	pc, [sp], #4
  85              	.L4:
  86              		.align	2
  87              	.L3:
ARM GAS  /tmp/cc0sjefa.s 			page 4


  88 0040 00380240 		.word	1073887232
  89              		.cfi_endproc
  90              	.LFE134:
  92              		.section	.text.HAL_TIM_PWM_MspInit,"ax",%progbits
  93              		.align	1
  94              		.global	HAL_TIM_PWM_MspInit
  95              		.syntax unified
  96              		.thumb
  97              		.thumb_func
  98              		.fpu fpv4-sp-d16
 100              	HAL_TIM_PWM_MspInit:
 101              	.LVL1:
 102              	.LFB135:
  86:Core/Src/stm32f4xx_hal_msp.c **** 
  87:Core/Src/stm32f4xx_hal_msp.c **** /**
  88:Core/Src/stm32f4xx_hal_msp.c **** * @brief TIM_PWM MSP Initialization
  89:Core/Src/stm32f4xx_hal_msp.c **** * This function configures the hardware resources used in this example
  90:Core/Src/stm32f4xx_hal_msp.c **** * @param htim_pwm: TIM_PWM handle pointer
  91:Core/Src/stm32f4xx_hal_msp.c **** * @retval None
  92:Core/Src/stm32f4xx_hal_msp.c **** */
  93:Core/Src/stm32f4xx_hal_msp.c **** void HAL_TIM_PWM_MspInit(TIM_HandleTypeDef* htim_pwm)
  94:Core/Src/stm32f4xx_hal_msp.c **** {
 103              		.loc 1 94 1 is_stmt 1 view -0
 104              		.cfi_startproc
 105              		@ args = 0, pretend = 0, frame = 8
 106              		@ frame_needed = 0, uses_anonymous_args = 0
 107              		@ link register save eliminated.
  95:Core/Src/stm32f4xx_hal_msp.c ****   if(htim_pwm->Instance==TIM2)
 108              		.loc 1 95 3 view .LVU16
 109              		.loc 1 95 14 is_stmt 0 view .LVU17
 110 0000 0368     		ldr	r3, [r0]
 111              		.loc 1 95 5 view .LVU18
 112 0002 B3F1804F 		cmp	r3, #1073741824
 113 0006 00D0     		beq	.L11
 114 0008 7047     		bx	lr
 115              	.L11:
  94:Core/Src/stm32f4xx_hal_msp.c ****   if(htim_pwm->Instance==TIM2)
 116              		.loc 1 94 1 view .LVU19
 117 000a 82B0     		sub	sp, sp, #8
 118              	.LCFI3:
 119              		.cfi_def_cfa_offset 8
  96:Core/Src/stm32f4xx_hal_msp.c ****   {
  97:Core/Src/stm32f4xx_hal_msp.c ****   /* USER CODE BEGIN TIM2_MspInit 0 */
  98:Core/Src/stm32f4xx_hal_msp.c **** 
  99:Core/Src/stm32f4xx_hal_msp.c ****   /* USER CODE END TIM2_MspInit 0 */
 100:Core/Src/stm32f4xx_hal_msp.c ****     /* Peripheral clock enable */
 101:Core/Src/stm32f4xx_hal_msp.c ****     __HAL_RCC_TIM2_CLK_ENABLE();
 120              		.loc 1 101 5 is_stmt 1 view .LVU20
 121              	.LBB4:
 122              		.loc 1 101 5 view .LVU21
 123 000c 0023     		movs	r3, #0
 124 000e 0193     		str	r3, [sp, #4]
 125              		.loc 1 101 5 view .LVU22
 126 0010 054B     		ldr	r3, .L12
 127 0012 1A6C     		ldr	r2, [r3, #64]
 128 0014 42F00102 		orr	r2, r2, #1
 129 0018 1A64     		str	r2, [r3, #64]
ARM GAS  /tmp/cc0sjefa.s 			page 5


 130              		.loc 1 101 5 view .LVU23
 131 001a 1B6C     		ldr	r3, [r3, #64]
 132 001c 03F00103 		and	r3, r3, #1
 133 0020 0193     		str	r3, [sp, #4]
 134              		.loc 1 101 5 view .LVU24
 135 0022 019B     		ldr	r3, [sp, #4]
 136              	.LBE4:
 137              		.loc 1 101 5 view .LVU25
 102:Core/Src/stm32f4xx_hal_msp.c ****   /* USER CODE BEGIN TIM2_MspInit 1 */
 103:Core/Src/stm32f4xx_hal_msp.c **** 
 104:Core/Src/stm32f4xx_hal_msp.c ****   /* USER CODE END TIM2_MspInit 1 */
 105:Core/Src/stm32f4xx_hal_msp.c ****   }
 106:Core/Src/stm32f4xx_hal_msp.c **** 
 107:Core/Src/stm32f4xx_hal_msp.c **** }
 138              		.loc 1 107 1 is_stmt 0 view .LVU26
 139 0024 02B0     		add	sp, sp, #8
 140              	.LCFI4:
 141              		.cfi_def_cfa_offset 0
 142              		@ sp needed
 143 0026 7047     		bx	lr
 144              	.L13:
 145              		.align	2
 146              	.L12:
 147 0028 00380240 		.word	1073887232
 148              		.cfi_endproc
 149              	.LFE135:
 151              		.section	.text.HAL_TIM_MspPostInit,"ax",%progbits
 152              		.align	1
 153              		.global	HAL_TIM_MspPostInit
 154              		.syntax unified
 155              		.thumb
 156              		.thumb_func
 157              		.fpu fpv4-sp-d16
 159              	HAL_TIM_MspPostInit:
 160              	.LVL2:
 161              	.LFB136:
 108:Core/Src/stm32f4xx_hal_msp.c **** 
 109:Core/Src/stm32f4xx_hal_msp.c **** void HAL_TIM_MspPostInit(TIM_HandleTypeDef* htim)
 110:Core/Src/stm32f4xx_hal_msp.c **** {
 162              		.loc 1 110 1 is_stmt 1 view -0
 163              		.cfi_startproc
 164              		@ args = 0, pretend = 0, frame = 24
 165              		@ frame_needed = 0, uses_anonymous_args = 0
 166              		.loc 1 110 1 is_stmt 0 view .LVU28
 167 0000 00B5     		push	{lr}
 168              	.LCFI5:
 169              		.cfi_def_cfa_offset 4
 170              		.cfi_offset 14, -4
 171 0002 87B0     		sub	sp, sp, #28
 172              	.LCFI6:
 173              		.cfi_def_cfa_offset 32
 111:Core/Src/stm32f4xx_hal_msp.c ****   GPIO_InitTypeDef GPIO_InitStruct = {0};
 174              		.loc 1 111 3 is_stmt 1 view .LVU29
 175              		.loc 1 111 20 is_stmt 0 view .LVU30
 176 0004 0023     		movs	r3, #0
 177 0006 0193     		str	r3, [sp, #4]
 178 0008 0293     		str	r3, [sp, #8]
ARM GAS  /tmp/cc0sjefa.s 			page 6


 179 000a 0393     		str	r3, [sp, #12]
 180 000c 0493     		str	r3, [sp, #16]
 181 000e 0593     		str	r3, [sp, #20]
 112:Core/Src/stm32f4xx_hal_msp.c ****   if(htim->Instance==TIM2)
 182              		.loc 1 112 3 is_stmt 1 view .LVU31
 183              		.loc 1 112 10 is_stmt 0 view .LVU32
 184 0010 0368     		ldr	r3, [r0]
 185              		.loc 1 112 5 view .LVU33
 186 0012 B3F1804F 		cmp	r3, #1073741824
 187 0016 02D0     		beq	.L17
 188              	.LVL3:
 189              	.L14:
 113:Core/Src/stm32f4xx_hal_msp.c ****   {
 114:Core/Src/stm32f4xx_hal_msp.c ****   /* USER CODE BEGIN TIM2_MspPostInit 0 */
 115:Core/Src/stm32f4xx_hal_msp.c **** 
 116:Core/Src/stm32f4xx_hal_msp.c ****   /* USER CODE END TIM2_MspPostInit 0 */
 117:Core/Src/stm32f4xx_hal_msp.c **** 
 118:Core/Src/stm32f4xx_hal_msp.c ****     __HAL_RCC_GPIOA_CLK_ENABLE();
 119:Core/Src/stm32f4xx_hal_msp.c ****     /**TIM2 GPIO Configuration
 120:Core/Src/stm32f4xx_hal_msp.c ****     PA0-WKUP     ------> TIM2_CH1
 121:Core/Src/stm32f4xx_hal_msp.c ****     */
 122:Core/Src/stm32f4xx_hal_msp.c ****     GPIO_InitStruct.Pin = GPIO_PIN_0;
 123:Core/Src/stm32f4xx_hal_msp.c ****     GPIO_InitStruct.Mode = GPIO_MODE_AF_PP;
 124:Core/Src/stm32f4xx_hal_msp.c ****     GPIO_InitStruct.Pull = GPIO_NOPULL;
 125:Core/Src/stm32f4xx_hal_msp.c ****     GPIO_InitStruct.Speed = GPIO_SPEED_FREQ_LOW;
 126:Core/Src/stm32f4xx_hal_msp.c ****     GPIO_InitStruct.Alternate = GPIO_AF1_TIM2;
 127:Core/Src/stm32f4xx_hal_msp.c ****     HAL_GPIO_Init(GPIOA, &GPIO_InitStruct);
 128:Core/Src/stm32f4xx_hal_msp.c **** 
 129:Core/Src/stm32f4xx_hal_msp.c ****   /* USER CODE BEGIN TIM2_MspPostInit 1 */
 130:Core/Src/stm32f4xx_hal_msp.c **** 
 131:Core/Src/stm32f4xx_hal_msp.c ****   /* USER CODE END TIM2_MspPostInit 1 */
 132:Core/Src/stm32f4xx_hal_msp.c ****   }
 133:Core/Src/stm32f4xx_hal_msp.c **** 
 134:Core/Src/stm32f4xx_hal_msp.c **** }
 190              		.loc 1 134 1 view .LVU34
 191 0018 07B0     		add	sp, sp, #28
 192              	.LCFI7:
 193              		.cfi_remember_state
 194              		.cfi_def_cfa_offset 4
 195              		@ sp needed
 196 001a 5DF804FB 		ldr	pc, [sp], #4
 197              	.LVL4:
 198              	.L17:
 199              	.LCFI8:
 200              		.cfi_restore_state
 118:Core/Src/stm32f4xx_hal_msp.c ****     /**TIM2 GPIO Configuration
 201              		.loc 1 118 5 is_stmt 1 view .LVU35
 202              	.LBB5:
 118:Core/Src/stm32f4xx_hal_msp.c ****     /**TIM2 GPIO Configuration
 203              		.loc 1 118 5 view .LVU36
 204 001e 0023     		movs	r3, #0
 205 0020 0093     		str	r3, [sp]
 118:Core/Src/stm32f4xx_hal_msp.c ****     /**TIM2 GPIO Configuration
 206              		.loc 1 118 5 view .LVU37
 207 0022 0A4B     		ldr	r3, .L18
 208 0024 1A6B     		ldr	r2, [r3, #48]
 209 0026 42F00102 		orr	r2, r2, #1
ARM GAS  /tmp/cc0sjefa.s 			page 7


 210 002a 1A63     		str	r2, [r3, #48]
 118:Core/Src/stm32f4xx_hal_msp.c ****     /**TIM2 GPIO Configuration
 211              		.loc 1 118 5 view .LVU38
 212 002c 1B6B     		ldr	r3, [r3, #48]
 213 002e 03F00103 		and	r3, r3, #1
 214 0032 0093     		str	r3, [sp]
 118:Core/Src/stm32f4xx_hal_msp.c ****     /**TIM2 GPIO Configuration
 215              		.loc 1 118 5 view .LVU39
 216 0034 009B     		ldr	r3, [sp]
 217              	.LBE5:
 118:Core/Src/stm32f4xx_hal_msp.c ****     /**TIM2 GPIO Configuration
 218              		.loc 1 118 5 view .LVU40
 122:Core/Src/stm32f4xx_hal_msp.c ****     GPIO_InitStruct.Mode = GPIO_MODE_AF_PP;
 219              		.loc 1 122 5 view .LVU41
 122:Core/Src/stm32f4xx_hal_msp.c ****     GPIO_InitStruct.Mode = GPIO_MODE_AF_PP;
 220              		.loc 1 122 25 is_stmt 0 view .LVU42
 221 0036 0123     		movs	r3, #1
 222 0038 0193     		str	r3, [sp, #4]
 123:Core/Src/stm32f4xx_hal_msp.c ****     GPIO_InitStruct.Pull = GPIO_NOPULL;
 223              		.loc 1 123 5 is_stmt 1 view .LVU43
 123:Core/Src/stm32f4xx_hal_msp.c ****     GPIO_InitStruct.Pull = GPIO_NOPULL;
 224              		.loc 1 123 26 is_stmt 0 view .LVU44
 225 003a 0222     		movs	r2, #2
 226 003c 0292     		str	r2, [sp, #8]
 124:Core/Src/stm32f4xx_hal_msp.c ****     GPIO_InitStruct.Speed = GPIO_SPEED_FREQ_LOW;
 227              		.loc 1 124 5 is_stmt 1 view .LVU45
 125:Core/Src/stm32f4xx_hal_msp.c ****     GPIO_InitStruct.Alternate = GPIO_AF1_TIM2;
 228              		.loc 1 125 5 view .LVU46
 126:Core/Src/stm32f4xx_hal_msp.c ****     HAL_GPIO_Init(GPIOA, &GPIO_InitStruct);
 229              		.loc 1 126 5 view .LVU47
 126:Core/Src/stm32f4xx_hal_msp.c ****     HAL_GPIO_Init(GPIOA, &GPIO_InitStruct);
 230              		.loc 1 126 31 is_stmt 0 view .LVU48
 231 003e 0593     		str	r3, [sp, #20]
 127:Core/Src/stm32f4xx_hal_msp.c **** 
 232              		.loc 1 127 5 is_stmt 1 view .LVU49
 233 0040 01A9     		add	r1, sp, #4
 234 0042 0348     		ldr	r0, .L18+4
 235              	.LVL5:
 127:Core/Src/stm32f4xx_hal_msp.c **** 
 236              		.loc 1 127 5 is_stmt 0 view .LVU50
 237 0044 FFF7FEFF 		bl	HAL_GPIO_Init
 238              	.LVL6:
 239              		.loc 1 134 1 view .LVU51
 240 0048 E6E7     		b	.L14
 241              	.L19:
 242 004a 00BF     		.align	2
 243              	.L18:
 244 004c 00380240 		.word	1073887232
 245 0050 00000240 		.word	1073872896
 246              		.cfi_endproc
 247              	.LFE136:
 249              		.section	.text.HAL_TIM_PWM_MspDeInit,"ax",%progbits
 250              		.align	1
 251              		.global	HAL_TIM_PWM_MspDeInit
 252              		.syntax unified
 253              		.thumb
 254              		.thumb_func
ARM GAS  /tmp/cc0sjefa.s 			page 8


 255              		.fpu fpv4-sp-d16
 257              	HAL_TIM_PWM_MspDeInit:
 258              	.LVL7:
 259              	.LFB137:
 135:Core/Src/stm32f4xx_hal_msp.c **** /**
 136:Core/Src/stm32f4xx_hal_msp.c **** * @brief TIM_PWM MSP De-Initialization
 137:Core/Src/stm32f4xx_hal_msp.c **** * This function freeze the hardware resources used in this example
 138:Core/Src/stm32f4xx_hal_msp.c **** * @param htim_pwm: TIM_PWM handle pointer
 139:Core/Src/stm32f4xx_hal_msp.c **** * @retval None
 140:Core/Src/stm32f4xx_hal_msp.c **** */
 141:Core/Src/stm32f4xx_hal_msp.c **** void HAL_TIM_PWM_MspDeInit(TIM_HandleTypeDef* htim_pwm)
 142:Core/Src/stm32f4xx_hal_msp.c **** {
 260              		.loc 1 142 1 is_stmt 1 view -0
 261              		.cfi_startproc
 262              		@ args = 0, pretend = 0, frame = 0
 263              		@ frame_needed = 0, uses_anonymous_args = 0
 264              		@ link register save eliminated.
 143:Core/Src/stm32f4xx_hal_msp.c ****   if(htim_pwm->Instance==TIM2)
 265              		.loc 1 143 3 view .LVU53
 266              		.loc 1 143 14 is_stmt 0 view .LVU54
 267 0000 0368     		ldr	r3, [r0]
 268              		.loc 1 143 5 view .LVU55
 269 0002 B3F1804F 		cmp	r3, #1073741824
 270 0006 00D0     		beq	.L22
 271              	.L20:
 144:Core/Src/stm32f4xx_hal_msp.c ****   {
 145:Core/Src/stm32f4xx_hal_msp.c ****   /* USER CODE BEGIN TIM2_MspDeInit 0 */
 146:Core/Src/stm32f4xx_hal_msp.c **** 
 147:Core/Src/stm32f4xx_hal_msp.c ****   /* USER CODE END TIM2_MspDeInit 0 */
 148:Core/Src/stm32f4xx_hal_msp.c ****     /* Peripheral clock disable */
 149:Core/Src/stm32f4xx_hal_msp.c ****     __HAL_RCC_TIM2_CLK_DISABLE();
 150:Core/Src/stm32f4xx_hal_msp.c ****   /* USER CODE BEGIN TIM2_MspDeInit 1 */
 151:Core/Src/stm32f4xx_hal_msp.c **** 
 152:Core/Src/stm32f4xx_hal_msp.c ****   /* USER CODE END TIM2_MspDeInit 1 */
 153:Core/Src/stm32f4xx_hal_msp.c ****   }
 154:Core/Src/stm32f4xx_hal_msp.c **** 
 155:Core/Src/stm32f4xx_hal_msp.c **** }
 272              		.loc 1 155 1 view .LVU56
 273 0008 7047     		bx	lr
 274              	.L22:
 149:Core/Src/stm32f4xx_hal_msp.c ****   /* USER CODE BEGIN TIM2_MspDeInit 1 */
 275              		.loc 1 149 5 is_stmt 1 view .LVU57
 276 000a 034A     		ldr	r2, .L23
 277 000c 136C     		ldr	r3, [r2, #64]
 278 000e 23F00103 		bic	r3, r3, #1
 279 0012 1364     		str	r3, [r2, #64]
 280              		.loc 1 155 1 is_stmt 0 view .LVU58
 281 0014 F8E7     		b	.L20
 282              	.L24:
 283 0016 00BF     		.align	2
 284              	.L23:
 285 0018 00380240 		.word	1073887232
 286              		.cfi_endproc
 287              	.LFE137:
 289              		.section	.text.HAL_UART_MspInit,"ax",%progbits
 290              		.align	1
 291              		.global	HAL_UART_MspInit
ARM GAS  /tmp/cc0sjefa.s 			page 9


 292              		.syntax unified
 293              		.thumb
 294              		.thumb_func
 295              		.fpu fpv4-sp-d16
 297              	HAL_UART_MspInit:
 298              	.LVL8:
 299              	.LFB138:
 156:Core/Src/stm32f4xx_hal_msp.c **** 
 157:Core/Src/stm32f4xx_hal_msp.c **** /**
 158:Core/Src/stm32f4xx_hal_msp.c **** * @brief UART MSP Initialization
 159:Core/Src/stm32f4xx_hal_msp.c **** * This function configures the hardware resources used in this example
 160:Core/Src/stm32f4xx_hal_msp.c **** * @param huart: UART handle pointer
 161:Core/Src/stm32f4xx_hal_msp.c **** * @retval None
 162:Core/Src/stm32f4xx_hal_msp.c **** */
 163:Core/Src/stm32f4xx_hal_msp.c **** void HAL_UART_MspInit(UART_HandleTypeDef* huart)
 164:Core/Src/stm32f4xx_hal_msp.c **** {
 300              		.loc 1 164 1 is_stmt 1 view -0
 301              		.cfi_startproc
 302              		@ args = 0, pretend = 0, frame = 32
 303              		@ frame_needed = 0, uses_anonymous_args = 0
 304              		.loc 1 164 1 is_stmt 0 view .LVU60
 305 0000 30B5     		push	{r4, r5, lr}
 306              	.LCFI9:
 307              		.cfi_def_cfa_offset 12
 308              		.cfi_offset 4, -12
 309              		.cfi_offset 5, -8
 310              		.cfi_offset 14, -4
 311 0002 89B0     		sub	sp, sp, #36
 312              	.LCFI10:
 313              		.cfi_def_cfa_offset 48
 165:Core/Src/stm32f4xx_hal_msp.c ****   GPIO_InitTypeDef GPIO_InitStruct = {0};
 314              		.loc 1 165 3 is_stmt 1 view .LVU61
 315              		.loc 1 165 20 is_stmt 0 view .LVU62
 316 0004 0023     		movs	r3, #0
 317 0006 0393     		str	r3, [sp, #12]
 318 0008 0493     		str	r3, [sp, #16]
 319 000a 0593     		str	r3, [sp, #20]
 320 000c 0693     		str	r3, [sp, #24]
 321 000e 0793     		str	r3, [sp, #28]
 166:Core/Src/stm32f4xx_hal_msp.c ****   if(huart->Instance==USART2)
 322              		.loc 1 166 3 is_stmt 1 view .LVU63
 323              		.loc 1 166 11 is_stmt 0 view .LVU64
 324 0010 0268     		ldr	r2, [r0]
 325              		.loc 1 166 5 view .LVU65
 326 0012 364B     		ldr	r3, .L33
 327 0014 9A42     		cmp	r2, r3
 328 0016 01D0     		beq	.L30
 329              	.LVL9:
 330              	.L25:
 167:Core/Src/stm32f4xx_hal_msp.c ****   {
 168:Core/Src/stm32f4xx_hal_msp.c ****   /* USER CODE BEGIN USART2_MspInit 0 */
 169:Core/Src/stm32f4xx_hal_msp.c **** 
 170:Core/Src/stm32f4xx_hal_msp.c ****   /* USER CODE END USART2_MspInit 0 */
 171:Core/Src/stm32f4xx_hal_msp.c ****     /* Peripheral clock enable */
 172:Core/Src/stm32f4xx_hal_msp.c ****     __HAL_RCC_USART2_CLK_ENABLE();
 173:Core/Src/stm32f4xx_hal_msp.c **** 
 174:Core/Src/stm32f4xx_hal_msp.c ****     __HAL_RCC_GPIOA_CLK_ENABLE();
ARM GAS  /tmp/cc0sjefa.s 			page 10


 175:Core/Src/stm32f4xx_hal_msp.c ****     /**USART2 GPIO Configuration
 176:Core/Src/stm32f4xx_hal_msp.c ****     PA2     ------> USART2_TX
 177:Core/Src/stm32f4xx_hal_msp.c ****     PA3     ------> USART2_RX
 178:Core/Src/stm32f4xx_hal_msp.c ****     */
 179:Core/Src/stm32f4xx_hal_msp.c ****     GPIO_InitStruct.Pin = USART_TX_Pin|USART_RX_Pin;
 180:Core/Src/stm32f4xx_hal_msp.c ****     GPIO_InitStruct.Mode = GPIO_MODE_AF_PP;
 181:Core/Src/stm32f4xx_hal_msp.c ****     GPIO_InitStruct.Pull = GPIO_NOPULL;
 182:Core/Src/stm32f4xx_hal_msp.c ****     GPIO_InitStruct.Speed = GPIO_SPEED_FREQ_VERY_HIGH;
 183:Core/Src/stm32f4xx_hal_msp.c ****     GPIO_InitStruct.Alternate = GPIO_AF7_USART2;
 184:Core/Src/stm32f4xx_hal_msp.c ****     HAL_GPIO_Init(GPIOA, &GPIO_InitStruct);
 185:Core/Src/stm32f4xx_hal_msp.c **** 
 186:Core/Src/stm32f4xx_hal_msp.c ****     /* USART2 DMA Init */
 187:Core/Src/stm32f4xx_hal_msp.c ****     /* USART2_RX Init */
 188:Core/Src/stm32f4xx_hal_msp.c ****     hdma_usart2_rx.Instance = DMA1_Stream5;
 189:Core/Src/stm32f4xx_hal_msp.c ****     hdma_usart2_rx.Init.Channel = DMA_CHANNEL_4;
 190:Core/Src/stm32f4xx_hal_msp.c ****     hdma_usart2_rx.Init.Direction = DMA_PERIPH_TO_MEMORY;
 191:Core/Src/stm32f4xx_hal_msp.c ****     hdma_usart2_rx.Init.PeriphInc = DMA_PINC_DISABLE;
 192:Core/Src/stm32f4xx_hal_msp.c ****     hdma_usart2_rx.Init.MemInc = DMA_MINC_ENABLE;
 193:Core/Src/stm32f4xx_hal_msp.c ****     hdma_usart2_rx.Init.PeriphDataAlignment = DMA_PDATAALIGN_BYTE;
 194:Core/Src/stm32f4xx_hal_msp.c ****     hdma_usart2_rx.Init.MemDataAlignment = DMA_MDATAALIGN_BYTE;
 195:Core/Src/stm32f4xx_hal_msp.c ****     hdma_usart2_rx.Init.Mode = DMA_CIRCULAR;
 196:Core/Src/stm32f4xx_hal_msp.c ****     hdma_usart2_rx.Init.Priority = DMA_PRIORITY_VERY_HIGH;
 197:Core/Src/stm32f4xx_hal_msp.c ****     hdma_usart2_rx.Init.FIFOMode = DMA_FIFOMODE_DISABLE;
 198:Core/Src/stm32f4xx_hal_msp.c ****     if (HAL_DMA_Init(&hdma_usart2_rx) != HAL_OK)
 199:Core/Src/stm32f4xx_hal_msp.c ****     {
 200:Core/Src/stm32f4xx_hal_msp.c ****       Error_Handler();
 201:Core/Src/stm32f4xx_hal_msp.c ****     }
 202:Core/Src/stm32f4xx_hal_msp.c **** 
 203:Core/Src/stm32f4xx_hal_msp.c ****     __HAL_LINKDMA(huart,hdmarx,hdma_usart2_rx);
 204:Core/Src/stm32f4xx_hal_msp.c **** 
 205:Core/Src/stm32f4xx_hal_msp.c ****     /* USART2_TX Init */
 206:Core/Src/stm32f4xx_hal_msp.c ****     hdma_usart2_tx.Instance = DMA1_Stream6;
 207:Core/Src/stm32f4xx_hal_msp.c ****     hdma_usart2_tx.Init.Channel = DMA_CHANNEL_4;
 208:Core/Src/stm32f4xx_hal_msp.c ****     hdma_usart2_tx.Init.Direction = DMA_MEMORY_TO_PERIPH;
 209:Core/Src/stm32f4xx_hal_msp.c ****     hdma_usart2_tx.Init.PeriphInc = DMA_PINC_DISABLE;
 210:Core/Src/stm32f4xx_hal_msp.c ****     hdma_usart2_tx.Init.MemInc = DMA_MINC_ENABLE;
 211:Core/Src/stm32f4xx_hal_msp.c ****     hdma_usart2_tx.Init.PeriphDataAlignment = DMA_PDATAALIGN_BYTE;
 212:Core/Src/stm32f4xx_hal_msp.c ****     hdma_usart2_tx.Init.MemDataAlignment = DMA_MDATAALIGN_BYTE;
 213:Core/Src/stm32f4xx_hal_msp.c ****     hdma_usart2_tx.Init.Mode = DMA_NORMAL;
 214:Core/Src/stm32f4xx_hal_msp.c ****     hdma_usart2_tx.Init.Priority = DMA_PRIORITY_VERY_HIGH;
 215:Core/Src/stm32f4xx_hal_msp.c ****     hdma_usart2_tx.Init.FIFOMode = DMA_FIFOMODE_DISABLE;
 216:Core/Src/stm32f4xx_hal_msp.c ****     if (HAL_DMA_Init(&hdma_usart2_tx) != HAL_OK)
 217:Core/Src/stm32f4xx_hal_msp.c ****     {
 218:Core/Src/stm32f4xx_hal_msp.c ****       Error_Handler();
 219:Core/Src/stm32f4xx_hal_msp.c ****     }
 220:Core/Src/stm32f4xx_hal_msp.c **** 
 221:Core/Src/stm32f4xx_hal_msp.c ****     __HAL_LINKDMA(huart,hdmatx,hdma_usart2_tx);
 222:Core/Src/stm32f4xx_hal_msp.c **** 
 223:Core/Src/stm32f4xx_hal_msp.c ****     /* USART2 interrupt Init */
 224:Core/Src/stm32f4xx_hal_msp.c ****     HAL_NVIC_SetPriority(USART2_IRQn, 5, 0);
 225:Core/Src/stm32f4xx_hal_msp.c ****     HAL_NVIC_EnableIRQ(USART2_IRQn);
 226:Core/Src/stm32f4xx_hal_msp.c ****   /* USER CODE BEGIN USART2_MspInit 1 */
 227:Core/Src/stm32f4xx_hal_msp.c **** 
 228:Core/Src/stm32f4xx_hal_msp.c ****   /* USER CODE END USART2_MspInit 1 */
 229:Core/Src/stm32f4xx_hal_msp.c ****   }
 230:Core/Src/stm32f4xx_hal_msp.c **** 
 231:Core/Src/stm32f4xx_hal_msp.c **** }
ARM GAS  /tmp/cc0sjefa.s 			page 11


 331              		.loc 1 231 1 view .LVU66
 332 0018 09B0     		add	sp, sp, #36
 333              	.LCFI11:
 334              		.cfi_remember_state
 335              		.cfi_def_cfa_offset 12
 336              		@ sp needed
 337 001a 30BD     		pop	{r4, r5, pc}
 338              	.LVL10:
 339              	.L30:
 340              	.LCFI12:
 341              		.cfi_restore_state
 342              		.loc 1 231 1 view .LVU67
 343 001c 0446     		mov	r4, r0
 172:Core/Src/stm32f4xx_hal_msp.c **** 
 344              		.loc 1 172 5 is_stmt 1 view .LVU68
 345              	.LBB6:
 172:Core/Src/stm32f4xx_hal_msp.c **** 
 346              		.loc 1 172 5 view .LVU69
 347 001e 0025     		movs	r5, #0
 348 0020 0195     		str	r5, [sp, #4]
 172:Core/Src/stm32f4xx_hal_msp.c **** 
 349              		.loc 1 172 5 view .LVU70
 350 0022 03F5FA33 		add	r3, r3, #128000
 351 0026 1A6C     		ldr	r2, [r3, #64]
 352 0028 42F40032 		orr	r2, r2, #131072
 353 002c 1A64     		str	r2, [r3, #64]
 172:Core/Src/stm32f4xx_hal_msp.c **** 
 354              		.loc 1 172 5 view .LVU71
 355 002e 1A6C     		ldr	r2, [r3, #64]
 356 0030 02F40032 		and	r2, r2, #131072
 357 0034 0192     		str	r2, [sp, #4]
 172:Core/Src/stm32f4xx_hal_msp.c **** 
 358              		.loc 1 172 5 view .LVU72
 359 0036 019A     		ldr	r2, [sp, #4]
 360              	.LBE6:
 172:Core/Src/stm32f4xx_hal_msp.c **** 
 361              		.loc 1 172 5 view .LVU73
 174:Core/Src/stm32f4xx_hal_msp.c ****     /**USART2 GPIO Configuration
 362              		.loc 1 174 5 view .LVU74
 363              	.LBB7:
 174:Core/Src/stm32f4xx_hal_msp.c ****     /**USART2 GPIO Configuration
 364              		.loc 1 174 5 view .LVU75
 365 0038 0295     		str	r5, [sp, #8]
 174:Core/Src/stm32f4xx_hal_msp.c ****     /**USART2 GPIO Configuration
 366              		.loc 1 174 5 view .LVU76
 367 003a 1A6B     		ldr	r2, [r3, #48]
 368 003c 42F00102 		orr	r2, r2, #1
 369 0040 1A63     		str	r2, [r3, #48]
 174:Core/Src/stm32f4xx_hal_msp.c ****     /**USART2 GPIO Configuration
 370              		.loc 1 174 5 view .LVU77
 371 0042 1B6B     		ldr	r3, [r3, #48]
 372 0044 03F00103 		and	r3, r3, #1
 373 0048 0293     		str	r3, [sp, #8]
 174:Core/Src/stm32f4xx_hal_msp.c ****     /**USART2 GPIO Configuration
 374              		.loc 1 174 5 view .LVU78
 375 004a 029B     		ldr	r3, [sp, #8]
 376              	.LBE7:
ARM GAS  /tmp/cc0sjefa.s 			page 12


 174:Core/Src/stm32f4xx_hal_msp.c ****     /**USART2 GPIO Configuration
 377              		.loc 1 174 5 view .LVU79
 179:Core/Src/stm32f4xx_hal_msp.c ****     GPIO_InitStruct.Mode = GPIO_MODE_AF_PP;
 378              		.loc 1 179 5 view .LVU80
 179:Core/Src/stm32f4xx_hal_msp.c ****     GPIO_InitStruct.Mode = GPIO_MODE_AF_PP;
 379              		.loc 1 179 25 is_stmt 0 view .LVU81
 380 004c 0C23     		movs	r3, #12
 381 004e 0393     		str	r3, [sp, #12]
 180:Core/Src/stm32f4xx_hal_msp.c ****     GPIO_InitStruct.Pull = GPIO_NOPULL;
 382              		.loc 1 180 5 is_stmt 1 view .LVU82
 180:Core/Src/stm32f4xx_hal_msp.c ****     GPIO_InitStruct.Pull = GPIO_NOPULL;
 383              		.loc 1 180 26 is_stmt 0 view .LVU83
 384 0050 0223     		movs	r3, #2
 385 0052 0493     		str	r3, [sp, #16]
 181:Core/Src/stm32f4xx_hal_msp.c ****     GPIO_InitStruct.Speed = GPIO_SPEED_FREQ_VERY_HIGH;
 386              		.loc 1 181 5 is_stmt 1 view .LVU84
 182:Core/Src/stm32f4xx_hal_msp.c ****     GPIO_InitStruct.Alternate = GPIO_AF7_USART2;
 387              		.loc 1 182 5 view .LVU85
 182:Core/Src/stm32f4xx_hal_msp.c ****     GPIO_InitStruct.Alternate = GPIO_AF7_USART2;
 388              		.loc 1 182 27 is_stmt 0 view .LVU86
 389 0054 0323     		movs	r3, #3
 390 0056 0693     		str	r3, [sp, #24]
 183:Core/Src/stm32f4xx_hal_msp.c ****     HAL_GPIO_Init(GPIOA, &GPIO_InitStruct);
 391              		.loc 1 183 5 is_stmt 1 view .LVU87
 183:Core/Src/stm32f4xx_hal_msp.c ****     HAL_GPIO_Init(GPIOA, &GPIO_InitStruct);
 392              		.loc 1 183 31 is_stmt 0 view .LVU88
 393 0058 0723     		movs	r3, #7
 394 005a 0793     		str	r3, [sp, #28]
 184:Core/Src/stm32f4xx_hal_msp.c **** 
 395              		.loc 1 184 5 is_stmt 1 view .LVU89
 396 005c 03A9     		add	r1, sp, #12
 397 005e 2448     		ldr	r0, .L33+4
 398              	.LVL11:
 184:Core/Src/stm32f4xx_hal_msp.c **** 
 399              		.loc 1 184 5 is_stmt 0 view .LVU90
 400 0060 FFF7FEFF 		bl	HAL_GPIO_Init
 401              	.LVL12:
 188:Core/Src/stm32f4xx_hal_msp.c ****     hdma_usart2_rx.Init.Channel = DMA_CHANNEL_4;
 402              		.loc 1 188 5 is_stmt 1 view .LVU91
 188:Core/Src/stm32f4xx_hal_msp.c ****     hdma_usart2_rx.Init.Channel = DMA_CHANNEL_4;
 403              		.loc 1 188 29 is_stmt 0 view .LVU92
 404 0064 2348     		ldr	r0, .L33+8
 405 0066 244B     		ldr	r3, .L33+12
 406 0068 0360     		str	r3, [r0]
 189:Core/Src/stm32f4xx_hal_msp.c ****     hdma_usart2_rx.Init.Direction = DMA_PERIPH_TO_MEMORY;
 407              		.loc 1 189 5 is_stmt 1 view .LVU93
 189:Core/Src/stm32f4xx_hal_msp.c ****     hdma_usart2_rx.Init.Direction = DMA_PERIPH_TO_MEMORY;
 408              		.loc 1 189 33 is_stmt 0 view .LVU94
 409 006a 4FF00063 		mov	r3, #134217728
 410 006e 4360     		str	r3, [r0, #4]
 190:Core/Src/stm32f4xx_hal_msp.c ****     hdma_usart2_rx.Init.PeriphInc = DMA_PINC_DISABLE;
 411              		.loc 1 190 5 is_stmt 1 view .LVU95
 190:Core/Src/stm32f4xx_hal_msp.c ****     hdma_usart2_rx.Init.PeriphInc = DMA_PINC_DISABLE;
 412              		.loc 1 190 35 is_stmt 0 view .LVU96
 413 0070 8560     		str	r5, [r0, #8]
 191:Core/Src/stm32f4xx_hal_msp.c ****     hdma_usart2_rx.Init.MemInc = DMA_MINC_ENABLE;
 414              		.loc 1 191 5 is_stmt 1 view .LVU97
ARM GAS  /tmp/cc0sjefa.s 			page 13


 191:Core/Src/stm32f4xx_hal_msp.c ****     hdma_usart2_rx.Init.MemInc = DMA_MINC_ENABLE;
 415              		.loc 1 191 35 is_stmt 0 view .LVU98
 416 0072 C560     		str	r5, [r0, #12]
 192:Core/Src/stm32f4xx_hal_msp.c ****     hdma_usart2_rx.Init.PeriphDataAlignment = DMA_PDATAALIGN_BYTE;
 417              		.loc 1 192 5 is_stmt 1 view .LVU99
 192:Core/Src/stm32f4xx_hal_msp.c ****     hdma_usart2_rx.Init.PeriphDataAlignment = DMA_PDATAALIGN_BYTE;
 418              		.loc 1 192 32 is_stmt 0 view .LVU100
 419 0074 4FF48063 		mov	r3, #1024
 420 0078 0361     		str	r3, [r0, #16]
 193:Core/Src/stm32f4xx_hal_msp.c ****     hdma_usart2_rx.Init.MemDataAlignment = DMA_MDATAALIGN_BYTE;
 421              		.loc 1 193 5 is_stmt 1 view .LVU101
 193:Core/Src/stm32f4xx_hal_msp.c ****     hdma_usart2_rx.Init.MemDataAlignment = DMA_MDATAALIGN_BYTE;
 422              		.loc 1 193 45 is_stmt 0 view .LVU102
 423 007a 4561     		str	r5, [r0, #20]
 194:Core/Src/stm32f4xx_hal_msp.c ****     hdma_usart2_rx.Init.Mode = DMA_CIRCULAR;
 424              		.loc 1 194 5 is_stmt 1 view .LVU103
 194:Core/Src/stm32f4xx_hal_msp.c ****     hdma_usart2_rx.Init.Mode = DMA_CIRCULAR;
 425              		.loc 1 194 42 is_stmt 0 view .LVU104
 426 007c 8561     		str	r5, [r0, #24]
 195:Core/Src/stm32f4xx_hal_msp.c ****     hdma_usart2_rx.Init.Priority = DMA_PRIORITY_VERY_HIGH;
 427              		.loc 1 195 5 is_stmt 1 view .LVU105
 195:Core/Src/stm32f4xx_hal_msp.c ****     hdma_usart2_rx.Init.Priority = DMA_PRIORITY_VERY_HIGH;
 428              		.loc 1 195 30 is_stmt 0 view .LVU106
 429 007e 4FF48073 		mov	r3, #256
 430 0082 C361     		str	r3, [r0, #28]
 196:Core/Src/stm32f4xx_hal_msp.c ****     hdma_usart2_rx.Init.FIFOMode = DMA_FIFOMODE_DISABLE;
 431              		.loc 1 196 5 is_stmt 1 view .LVU107
 196:Core/Src/stm32f4xx_hal_msp.c ****     hdma_usart2_rx.Init.FIFOMode = DMA_FIFOMODE_DISABLE;
 432              		.loc 1 196 34 is_stmt 0 view .LVU108
 433 0084 4FF44033 		mov	r3, #196608
 434 0088 0362     		str	r3, [r0, #32]
 197:Core/Src/stm32f4xx_hal_msp.c ****     if (HAL_DMA_Init(&hdma_usart2_rx) != HAL_OK)
 435              		.loc 1 197 5 is_stmt 1 view .LVU109
 197:Core/Src/stm32f4xx_hal_msp.c ****     if (HAL_DMA_Init(&hdma_usart2_rx) != HAL_OK)
 436              		.loc 1 197 34 is_stmt 0 view .LVU110
 437 008a 4562     		str	r5, [r0, #36]
 198:Core/Src/stm32f4xx_hal_msp.c ****     {
 438              		.loc 1 198 5 is_stmt 1 view .LVU111
 198:Core/Src/stm32f4xx_hal_msp.c ****     {
 439              		.loc 1 198 9 is_stmt 0 view .LVU112
 440 008c FFF7FEFF 		bl	HAL_DMA_Init
 441              	.LVL13:
 198:Core/Src/stm32f4xx_hal_msp.c ****     {
 442              		.loc 1 198 8 view .LVU113
 443 0090 28BB     		cbnz	r0, .L31
 444              	.L27:
 203:Core/Src/stm32f4xx_hal_msp.c **** 
 445              		.loc 1 203 5 is_stmt 1 view .LVU114
 203:Core/Src/stm32f4xx_hal_msp.c **** 
 446              		.loc 1 203 5 view .LVU115
 447 0092 184B     		ldr	r3, .L33+8
 448 0094 E363     		str	r3, [r4, #60]
 203:Core/Src/stm32f4xx_hal_msp.c **** 
 449              		.loc 1 203 5 view .LVU116
 450 0096 9C63     		str	r4, [r3, #56]
 203:Core/Src/stm32f4xx_hal_msp.c **** 
 451              		.loc 1 203 5 view .LVU117
ARM GAS  /tmp/cc0sjefa.s 			page 14


 206:Core/Src/stm32f4xx_hal_msp.c ****     hdma_usart2_tx.Init.Channel = DMA_CHANNEL_4;
 452              		.loc 1 206 5 view .LVU118
 206:Core/Src/stm32f4xx_hal_msp.c ****     hdma_usart2_tx.Init.Channel = DMA_CHANNEL_4;
 453              		.loc 1 206 29 is_stmt 0 view .LVU119
 454 0098 1848     		ldr	r0, .L33+16
 455 009a 194B     		ldr	r3, .L33+20
 456 009c 0360     		str	r3, [r0]
 207:Core/Src/stm32f4xx_hal_msp.c ****     hdma_usart2_tx.Init.Direction = DMA_MEMORY_TO_PERIPH;
 457              		.loc 1 207 5 is_stmt 1 view .LVU120
 207:Core/Src/stm32f4xx_hal_msp.c ****     hdma_usart2_tx.Init.Direction = DMA_MEMORY_TO_PERIPH;
 458              		.loc 1 207 33 is_stmt 0 view .LVU121
 459 009e 4FF00063 		mov	r3, #134217728
 460 00a2 4360     		str	r3, [r0, #4]
 208:Core/Src/stm32f4xx_hal_msp.c ****     hdma_usart2_tx.Init.PeriphInc = DMA_PINC_DISABLE;
 461              		.loc 1 208 5 is_stmt 1 view .LVU122
 208:Core/Src/stm32f4xx_hal_msp.c ****     hdma_usart2_tx.Init.PeriphInc = DMA_PINC_DISABLE;
 462              		.loc 1 208 35 is_stmt 0 view .LVU123
 463 00a4 4023     		movs	r3, #64
 464 00a6 8360     		str	r3, [r0, #8]
 209:Core/Src/stm32f4xx_hal_msp.c ****     hdma_usart2_tx.Init.MemInc = DMA_MINC_ENABLE;
 465              		.loc 1 209 5 is_stmt 1 view .LVU124
 209:Core/Src/stm32f4xx_hal_msp.c ****     hdma_usart2_tx.Init.MemInc = DMA_MINC_ENABLE;
 466              		.loc 1 209 35 is_stmt 0 view .LVU125
 467 00a8 0023     		movs	r3, #0
 468 00aa C360     		str	r3, [r0, #12]
 210:Core/Src/stm32f4xx_hal_msp.c ****     hdma_usart2_tx.Init.PeriphDataAlignment = DMA_PDATAALIGN_BYTE;
 469              		.loc 1 210 5 is_stmt 1 view .LVU126
 210:Core/Src/stm32f4xx_hal_msp.c ****     hdma_usart2_tx.Init.PeriphDataAlignment = DMA_PDATAALIGN_BYTE;
 470              		.loc 1 210 32 is_stmt 0 view .LVU127
 471 00ac 4FF48062 		mov	r2, #1024
 472 00b0 0261     		str	r2, [r0, #16]
 211:Core/Src/stm32f4xx_hal_msp.c ****     hdma_usart2_tx.Init.MemDataAlignment = DMA_MDATAALIGN_BYTE;
 473              		.loc 1 211 5 is_stmt 1 view .LVU128
 211:Core/Src/stm32f4xx_hal_msp.c ****     hdma_usart2_tx.Init.MemDataAlignment = DMA_MDATAALIGN_BYTE;
 474              		.loc 1 211 45 is_stmt 0 view .LVU129
 475 00b2 4361     		str	r3, [r0, #20]
 212:Core/Src/stm32f4xx_hal_msp.c ****     hdma_usart2_tx.Init.Mode = DMA_NORMAL;
 476              		.loc 1 212 5 is_stmt 1 view .LVU130
 212:Core/Src/stm32f4xx_hal_msp.c ****     hdma_usart2_tx.Init.Mode = DMA_NORMAL;
 477              		.loc 1 212 42 is_stmt 0 view .LVU131
 478 00b4 8361     		str	r3, [r0, #24]
 213:Core/Src/stm32f4xx_hal_msp.c ****     hdma_usart2_tx.Init.Priority = DMA_PRIORITY_VERY_HIGH;
 479              		.loc 1 213 5 is_stmt 1 view .LVU132
 213:Core/Src/stm32f4xx_hal_msp.c ****     hdma_usart2_tx.Init.Priority = DMA_PRIORITY_VERY_HIGH;
 480              		.loc 1 213 30 is_stmt 0 view .LVU133
 481 00b6 C361     		str	r3, [r0, #28]
 214:Core/Src/stm32f4xx_hal_msp.c ****     hdma_usart2_tx.Init.FIFOMode = DMA_FIFOMODE_DISABLE;
 482              		.loc 1 214 5 is_stmt 1 view .LVU134
 214:Core/Src/stm32f4xx_hal_msp.c ****     hdma_usart2_tx.Init.FIFOMode = DMA_FIFOMODE_DISABLE;
 483              		.loc 1 214 34 is_stmt 0 view .LVU135
 484 00b8 4FF44032 		mov	r2, #196608
 485 00bc 0262     		str	r2, [r0, #32]
 215:Core/Src/stm32f4xx_hal_msp.c ****     if (HAL_DMA_Init(&hdma_usart2_tx) != HAL_OK)
 486              		.loc 1 215 5 is_stmt 1 view .LVU136
 215:Core/Src/stm32f4xx_hal_msp.c ****     if (HAL_DMA_Init(&hdma_usart2_tx) != HAL_OK)
 487              		.loc 1 215 34 is_stmt 0 view .LVU137
 488 00be 4362     		str	r3, [r0, #36]
ARM GAS  /tmp/cc0sjefa.s 			page 15


 216:Core/Src/stm32f4xx_hal_msp.c ****     {
 489              		.loc 1 216 5 is_stmt 1 view .LVU138
 216:Core/Src/stm32f4xx_hal_msp.c ****     {
 490              		.loc 1 216 9 is_stmt 0 view .LVU139
 491 00c0 FFF7FEFF 		bl	HAL_DMA_Init
 492              	.LVL14:
 216:Core/Src/stm32f4xx_hal_msp.c ****     {
 493              		.loc 1 216 8 view .LVU140
 494 00c4 70B9     		cbnz	r0, .L32
 495              	.L28:
 221:Core/Src/stm32f4xx_hal_msp.c **** 
 496              		.loc 1 221 5 is_stmt 1 view .LVU141
 221:Core/Src/stm32f4xx_hal_msp.c **** 
 497              		.loc 1 221 5 view .LVU142
 498 00c6 0D4B     		ldr	r3, .L33+16
 499 00c8 A363     		str	r3, [r4, #56]
 221:Core/Src/stm32f4xx_hal_msp.c **** 
 500              		.loc 1 221 5 view .LVU143
 501 00ca 9C63     		str	r4, [r3, #56]
 221:Core/Src/stm32f4xx_hal_msp.c **** 
 502              		.loc 1 221 5 view .LVU144
 224:Core/Src/stm32f4xx_hal_msp.c ****     HAL_NVIC_EnableIRQ(USART2_IRQn);
 503              		.loc 1 224 5 view .LVU145
 504 00cc 0022     		movs	r2, #0
 505 00ce 0521     		movs	r1, #5
 506 00d0 2620     		movs	r0, #38
 507 00d2 FFF7FEFF 		bl	HAL_NVIC_SetPriority
 508              	.LVL15:
 225:Core/Src/stm32f4xx_hal_msp.c ****   /* USER CODE BEGIN USART2_MspInit 1 */
 509              		.loc 1 225 5 view .LVU146
 510 00d6 2620     		movs	r0, #38
 511 00d8 FFF7FEFF 		bl	HAL_NVIC_EnableIRQ
 512              	.LVL16:
 513              		.loc 1 231 1 is_stmt 0 view .LVU147
 514 00dc 9CE7     		b	.L25
 515              	.L31:
 200:Core/Src/stm32f4xx_hal_msp.c ****     }
 516              		.loc 1 200 7 is_stmt 1 view .LVU148
 517 00de FFF7FEFF 		bl	Error_Handler
 518              	.LVL17:
 519 00e2 D6E7     		b	.L27
 520              	.L32:
 218:Core/Src/stm32f4xx_hal_msp.c ****     }
 521              		.loc 1 218 7 view .LVU149
 522 00e4 FFF7FEFF 		bl	Error_Handler
 523              	.LVL18:
 524 00e8 EDE7     		b	.L28
 525              	.L34:
 526 00ea 00BF     		.align	2
 527              	.L33:
 528 00ec 00440040 		.word	1073759232
 529 00f0 00000240 		.word	1073872896
 530 00f4 00000000 		.word	hdma_usart2_rx
 531 00f8 88600240 		.word	1073897608
 532 00fc 00000000 		.word	hdma_usart2_tx
 533 0100 A0600240 		.word	1073897632
 534              		.cfi_endproc
ARM GAS  /tmp/cc0sjefa.s 			page 16


 535              	.LFE138:
 537              		.section	.text.HAL_UART_MspDeInit,"ax",%progbits
 538              		.align	1
 539              		.global	HAL_UART_MspDeInit
 540              		.syntax unified
 541              		.thumb
 542              		.thumb_func
 543              		.fpu fpv4-sp-d16
 545              	HAL_UART_MspDeInit:
 546              	.LVL19:
 547              	.LFB139:
 232:Core/Src/stm32f4xx_hal_msp.c **** 
 233:Core/Src/stm32f4xx_hal_msp.c **** /**
 234:Core/Src/stm32f4xx_hal_msp.c **** * @brief UART MSP De-Initialization
 235:Core/Src/stm32f4xx_hal_msp.c **** * This function freeze the hardware resources used in this example
 236:Core/Src/stm32f4xx_hal_msp.c **** * @param huart: UART handle pointer
 237:Core/Src/stm32f4xx_hal_msp.c **** * @retval None
 238:Core/Src/stm32f4xx_hal_msp.c **** */
 239:Core/Src/stm32f4xx_hal_msp.c **** void HAL_UART_MspDeInit(UART_HandleTypeDef* huart)
 240:Core/Src/stm32f4xx_hal_msp.c **** {
 548              		.loc 1 240 1 view -0
 549              		.cfi_startproc
 550              		@ args = 0, pretend = 0, frame = 0
 551              		@ frame_needed = 0, uses_anonymous_args = 0
 241:Core/Src/stm32f4xx_hal_msp.c ****   if(huart->Instance==USART2)
 552              		.loc 1 241 3 view .LVU151
 553              		.loc 1 241 11 is_stmt 0 view .LVU152
 554 0000 0268     		ldr	r2, [r0]
 555              		.loc 1 241 5 view .LVU153
 556 0002 0C4B     		ldr	r3, .L42
 557 0004 9A42     		cmp	r2, r3
 558 0006 00D0     		beq	.L41
 559 0008 7047     		bx	lr
 560              	.L41:
 240:Core/Src/stm32f4xx_hal_msp.c ****   if(huart->Instance==USART2)
 561              		.loc 1 240 1 view .LVU154
 562 000a 10B5     		push	{r4, lr}
 563              	.LCFI13:
 564              		.cfi_def_cfa_offset 8
 565              		.cfi_offset 4, -8
 566              		.cfi_offset 14, -4
 567 000c 0446     		mov	r4, r0
 242:Core/Src/stm32f4xx_hal_msp.c ****   {
 243:Core/Src/stm32f4xx_hal_msp.c ****   /* USER CODE BEGIN USART2_MspDeInit 0 */
 244:Core/Src/stm32f4xx_hal_msp.c **** 
 245:Core/Src/stm32f4xx_hal_msp.c ****   /* USER CODE END USART2_MspDeInit 0 */
 246:Core/Src/stm32f4xx_hal_msp.c ****     /* Peripheral clock disable */
 247:Core/Src/stm32f4xx_hal_msp.c ****     __HAL_RCC_USART2_CLK_DISABLE();
 568              		.loc 1 247 5 is_stmt 1 view .LVU155
 569 000e 0A4A     		ldr	r2, .L42+4
 570 0010 136C     		ldr	r3, [r2, #64]
 571 0012 23F40033 		bic	r3, r3, #131072
 572 0016 1364     		str	r3, [r2, #64]
 248:Core/Src/stm32f4xx_hal_msp.c **** 
 249:Core/Src/stm32f4xx_hal_msp.c ****     /**USART2 GPIO Configuration
 250:Core/Src/stm32f4xx_hal_msp.c ****     PA2     ------> USART2_TX
 251:Core/Src/stm32f4xx_hal_msp.c ****     PA3     ------> USART2_RX
ARM GAS  /tmp/cc0sjefa.s 			page 17


 252:Core/Src/stm32f4xx_hal_msp.c ****     */
 253:Core/Src/stm32f4xx_hal_msp.c ****     HAL_GPIO_DeInit(GPIOA, USART_TX_Pin|USART_RX_Pin);
 573              		.loc 1 253 5 view .LVU156
 574 0018 0C21     		movs	r1, #12
 575 001a 0848     		ldr	r0, .L42+8
 576              	.LVL20:
 577              		.loc 1 253 5 is_stmt 0 view .LVU157
 578 001c FFF7FEFF 		bl	HAL_GPIO_DeInit
 579              	.LVL21:
 254:Core/Src/stm32f4xx_hal_msp.c **** 
 255:Core/Src/stm32f4xx_hal_msp.c ****     /* USART2 DMA DeInit */
 256:Core/Src/stm32f4xx_hal_msp.c ****     HAL_DMA_DeInit(huart->hdmarx);
 580              		.loc 1 256 5 is_stmt 1 view .LVU158
 581 0020 E06B     		ldr	r0, [r4, #60]
 582 0022 FFF7FEFF 		bl	HAL_DMA_DeInit
 583              	.LVL22:
 257:Core/Src/stm32f4xx_hal_msp.c ****     HAL_DMA_DeInit(huart->hdmatx);
 584              		.loc 1 257 5 view .LVU159
 585 0026 A06B     		ldr	r0, [r4, #56]
 586 0028 FFF7FEFF 		bl	HAL_DMA_DeInit
 587              	.LVL23:
 258:Core/Src/stm32f4xx_hal_msp.c **** 
 259:Core/Src/stm32f4xx_hal_msp.c ****     /* USART2 interrupt DeInit */
 260:Core/Src/stm32f4xx_hal_msp.c ****     HAL_NVIC_DisableIRQ(USART2_IRQn);
 588              		.loc 1 260 5 view .LVU160
 589 002c 2620     		movs	r0, #38
 590 002e FFF7FEFF 		bl	HAL_NVIC_DisableIRQ
 591              	.LVL24:
 261:Core/Src/stm32f4xx_hal_msp.c ****   /* USER CODE BEGIN USART2_MspDeInit 1 */
 262:Core/Src/stm32f4xx_hal_msp.c **** 
 263:Core/Src/stm32f4xx_hal_msp.c ****   /* USER CODE END USART2_MspDeInit 1 */
 264:Core/Src/stm32f4xx_hal_msp.c ****   }
 265:Core/Src/stm32f4xx_hal_msp.c **** 
 266:Core/Src/stm32f4xx_hal_msp.c **** }
 592              		.loc 1 266 1 is_stmt 0 view .LVU161
 593 0032 10BD     		pop	{r4, pc}
 594              	.LVL25:
 595              	.L43:
 596              		.loc 1 266 1 view .LVU162
 597              		.align	2
 598              	.L42:
 599 0034 00440040 		.word	1073759232
 600 0038 00380240 		.word	1073887232
 601 003c 00000240 		.word	1073872896
 602              		.cfi_endproc
 603              	.LFE139:
 605              		.text
 606              	.Letext0:
 607              		.file 2 "/usr/lib/gcc/arm-none-eabi/10.3.1/include/stdint.h"
 608              		.file 3 "Drivers/CMSIS/Device/ST/STM32F4xx/Include/stm32f446xx.h"
 609              		.file 4 "Drivers/STM32F4xx_HAL_Driver/Inc/stm32f4xx_hal_def.h"
 610              		.file 5 "Drivers/STM32F4xx_HAL_Driver/Inc/stm32f4xx_hal_gpio.h"
 611              		.file 6 "Drivers/STM32F4xx_HAL_Driver/Inc/stm32f4xx_hal_dma.h"
 612              		.file 7 "Drivers/STM32F4xx_HAL_Driver/Inc/stm32f4xx_hal_tim.h"
 613              		.file 8 "Drivers/STM32F4xx_HAL_Driver/Inc/stm32f4xx_hal_uart.h"
 614              		.file 9 "Drivers/STM32F4xx_HAL_Driver/Inc/stm32f4xx_hal_cortex.h"
 615              		.file 10 "Core/Inc/main.h"
ARM GAS  /tmp/cc0sjefa.s 			page 18


ARM GAS  /tmp/cc0sjefa.s 			page 19

